; Function Attrs: nounwind uwtable
define dso_local range(i64 0, 8161) i64 @GetRecordedFreeSpace(ptr noundef %0, i32 noundef %1) local_unnamed_addr #0 {
  %3 = udiv i32 %1, 4069
  %4 = urem i32 %1, 4069
  %.sroa.2.0.insert.ext.i = zext nneg i32 %3 to i64
  %.sroa.2.0.insert.shift.i = shl nuw nsw i64 %.sroa.2.0.insert.ext.i, 32
  %5 = tail call fastcc i32 @fsm_readbuf(ptr noundef %0, i64 %.sroa.2.0.insert.shift.i, i1 noundef zeroext false)
  %.not = icmp eq i32 %5, 0
  br i1 %.not, label %23, label %6

6:                                                ; preds = %2
  %7 = icmp slt i32 %5, 0
  br i1 %7, label %8, label %14

8:                                                ; preds = %6
  %9 = load ptr, ptr @LocalBufferBlockPointers, align 8
  %10 = xor i32 %5, -1
  %11 = zext nneg i32 %10 to i64
  %12 = getelementptr inbounds nuw ptr, ptr %9, i64 %11
  %13 = load ptr, ptr %12, align 8
  br label %BufferGetPage.exit

14:                                               ; preds = %6
  %15 = load ptr, ptr @BufferBlocks, align 8
  %16 = add nsw i32 %5, -1
  %17 = zext nneg i32 %16 to i64
  %18 = shl nuw nsw i64 %17, 13
  %19 = getelementptr inbounds nuw i8, ptr %15, i64 %18
  br label %BufferGetPage.exit

BufferGetPage.exit:                               ; preds = %8, %14
  %.0.i.i = phi ptr [ %13, %8 ], [ %19, %14 ]
  %20 = tail call zeroext i8 @fsm_get_avail(ptr noundef %.0.i.i, i32 noundef %4) #8
  tail call void @ReleaseBuffer(i32 noundef %5) #8
  %21 = zext i8 %20 to i64
  %22 = shl nuw nsw i64 %21, 5
  br label %23

23:                                               ; preds = %2, %BufferGetPage.exit
  %.0 = phi i64 [ %22, %BufferGetPage.exit ], [ 0, %2 ]
  ret i64 %.0
}